target datalayout = "e-m:e-p270:32:32-p271:32:32-p272:64:64-i64:64-i128:128-f80:128-n8:16:32:64-S128"
target triple = "x86_64-pc-linux-gnu"

%struct.FunctionCallInfoBaseData = type { ptr, ptr, ptr, i32, i8, i16, [0 x %struct.NullableDatum] }
%struct.NullableDatum = type { i64, i8 }
%struct.RangeType = type { i32, i32 }
%struct.ScanKeyData = type { i32, i16, i16, i32, i32, %struct.FmgrInfo, i64 }
%struct.FmgrInfo = type { ptr, i32, i16, i8, i8, i8, ptr, ptr, ptr }
%struct.spgLeafConsistentIn = type { ptr, ptr, i32, i32, i64, ptr, i32, i8, i64 }
%struct.spgLeafConsistentOut = type { i64, i8, i8, ptr }

@.str = private unnamed_addr constant [32 x i8] c"unrecognized range strategy: %d\00", align 1
@.str.1 = private unnamed_addr constant [20 x i8] c"rangetypes_spgist.c\00", align 1
@__func__.spg_range_quad_leaf_consistent = private unnamed_addr constant [31 x i8] c"spg_range_quad_leaf_consistent\00", align 1

; Function Attrs: inlinehint nounwind uwtable
define internal i64 @BoolGetDatum(i1 noundef zeroext %0) #2 {
  %2 = alloca i8, align 1
  %3 = zext i1 %0 to i8
  store i8 %3, ptr %2, align 1
  %4 = load i8, ptr %2, align 1, !range !4, !noundef !5
  %5 = trunc i8 %4 to i1
  %6 = select i1 %5, i32 1, i32 0
  %7 = sext i32 %6 to i64
  ret i64 %7
}

; Function Attrs: inlinehint nounwind uwtable
define internal ptr @DatumGetRangeTypeP(i64 noundef %0) #2 {
  %2 = alloca i64, align 8
  store i64 %0, ptr %2, align 8
  %3 = load i64, ptr %2, align 8
  %4 = call ptr @DatumGetPointer(i64 noundef %3)
  %5 = call ptr @pg_detoast_datum(ptr noundef %4)
  ret ptr %5
}

; Function Attrs: inlinehint nounwind uwtable
define internal ptr @DatumGetPointer(i64 noundef %0) #2 {
  %2 = alloca i64, align 8
  store i64 %0, ptr %2, align 8
  %3 = load i64, ptr %2, align 8
  %4 = inttoptr i64 %3 to ptr
  ret ptr %4
}

; Function Attrs: nounwind uwtable
define dso_local i64 @spg_range_quad_leaf_consistent(ptr noundef %0) #0 {
  %2 = alloca ptr, align 8
  %3 = alloca ptr, align 8
  %4 = alloca ptr, align 8
  %5 = alloca ptr, align 8
  %6 = alloca ptr, align 8
  %7 = alloca i8, align 1
  %8 = alloca i32, align 4
  %9 = alloca i64, align 8
  %10 = alloca i32, align 4
  store ptr %0, ptr %2, align 8
  call void @llvm.lifetime.start.p0(i64 8, ptr %3) #5
  %11 = load ptr, ptr %2, align 8
  %12 = getelementptr inbounds nuw %struct.FunctionCallInfoBaseData, ptr %11, i32 0, i32 6
  %13 = getelementptr inbounds [0 x %struct.NullableDatum], ptr %12, i64 0, i64 0
  %14 = getelementptr inbounds nuw %struct.NullableDatum, ptr %13, i32 0, i32 0
  %15 = load i64, ptr %14, align 8
  %16 = call ptr @DatumGetPointer(i64 noundef %15)
  store ptr %16, ptr %3, align 8
  call void @llvm.lifetime.start.p0(i64 8, ptr %4) #5
  %17 = load ptr, ptr %2, align 8
  %18 = getelementptr inbounds nuw %struct.FunctionCallInfoBaseData, ptr %17, i32 0, i32 6
  %19 = getelementptr inbounds [0 x %struct.NullableDatum], ptr %18, i64 0, i64 1
  %20 = getelementptr inbounds nuw %struct.NullableDatum, ptr %19, i32 0, i32 0
  %21 = load i64, ptr %20, align 8
  %22 = call ptr @DatumGetPointer(i64 noundef %21)
  store ptr %22, ptr %4, align 8
  call void @llvm.lifetime.start.p0(i64 8, ptr %5) #5
  %23 = load ptr, ptr %3, align 8
  %24 = getelementptr inbounds nuw %struct.spgLeafConsistentIn, ptr %23, i32 0, i32 8
  %25 = load i64, ptr %24, align 8
  %26 = call ptr @DatumGetRangeTypeP(i64 noundef %25)
  store ptr %26, ptr %5, align 8
  call void @llvm.lifetime.start.p0(i64 8, ptr %6) #5
  call void @llvm.lifetime.start.p0(i64 1, ptr %7) #5
  call void @llvm.lifetime.start.p0(i64 4, ptr %8) #5
  %27 = load ptr, ptr %4, align 8
  %28 = getelementptr inbounds nuw %struct.spgLeafConsistentOut, ptr %27, i32 0, i32 1
  store i8 0, ptr %28, align 8
  %29 = load ptr, ptr %3, align 8
  %30 = getelementptr inbounds nuw %struct.spgLeafConsistentIn, ptr %29, i32 0, i32 8
  %31 = load i64, ptr %30, align 8
  %32 = load ptr, ptr %4, align 8
  %33 = getelementptr inbounds nuw %struct.spgLeafConsistentOut, ptr %32, i32 0, i32 0
  store i64 %31, ptr %33, align 8
  %34 = load ptr, ptr %2, align 8
  %35 = load ptr, ptr %5, align 8
  %36 = getelementptr inbounds nuw %struct.RangeType, ptr %35, i32 0, i32 1
  %37 = load i32, ptr %36, align 4
  %38 = call ptr @range_get_typcache(ptr noundef %34, i32 noundef %37)
  store ptr %38, ptr %6, align 8
  store i8 1, ptr %7, align 1
  store i32 0, ptr %8, align 4
  br label %39

39:                                               ; preds = %160, %1
  %40 = load i32, ptr %8, align 4
  %41 = load ptr, ptr %3, align 8
  %42 = getelementptr inbounds nuw %struct.spgLeafConsistentIn, ptr %41, i32 0, i32 2
  %43 = load i32, ptr %42, align 8
  %44 = icmp slt i32 %40, %43
  br i1 %44, label %45, label %163

45:                                               ; preds = %39
  call void @llvm.lifetime.start.p0(i64 8, ptr %9) #5
  %46 = load ptr, ptr %3, align 8
  %47 = getelementptr inbounds nuw %struct.spgLeafConsistentIn, ptr %46, i32 0, i32 0
  %48 = load ptr, ptr %47, align 8
  %49 = load i32, ptr %8, align 4
  %50 = sext i32 %49 to i64
  %51 = getelementptr inbounds %struct.ScanKeyData, ptr %48, i64 %50
  %52 = getelementptr inbounds nuw %struct.ScanKeyData, ptr %51, i32 0, i32 6
  %53 = load i64, ptr %52, align 8
  store i64 %53, ptr %9, align 8
  %54 = load ptr, ptr %3, align 8
  %55 = getelementptr inbounds nuw %struct.spgLeafConsistentIn, ptr %54, i32 0, i32 0
  %56 = load ptr, ptr %55, align 8
  %57 = load i32, ptr %8, align 4
  %58 = sext i32 %57 to i64
  %59 = getelementptr inbounds %struct.ScanKeyData, ptr %56, i64 %58
  %60 = getelementptr inbounds nuw %struct.ScanKeyData, ptr %59, i32 0, i32 2
  %61 = load i16, ptr %60, align 2
  %62 = zext i16 %61 to i32
  switch i32 %62, label %132 [
    i32 1, label %63
    i32 2, label %70
    i32 3, label %77
    i32 4, label %84
    i32 5, label %91
    i32 6, label %98
    i32 7, label %105
    i32 8, label %112
    i32 16, label %119
    i32 18, label %125
  ]

63:                                               ; preds = %45
  %64 = load ptr, ptr %6, align 8
  %65 = load ptr, ptr %5, align 8
  %66 = load i64, ptr %9, align 8
  %67 = call ptr @DatumGetRangeTypeP(i64 noundef %66)
  %68 = call zeroext i1 @range_before_internal(ptr noundef %64, ptr noundef %65, ptr noundef %67)
  %69 = zext i1 %68 to i8
  store i8 %69, ptr %7, align 1
  br label %152

70:                                               ; preds = %45
  %71 = load ptr, ptr %6, align 8
  %72 = load ptr, ptr %5, align 8
  %73 = load i64, ptr %9, align 8
  %74 = call ptr @DatumGetRangeTypeP(i64 noundef %73)
  %75 = call zeroext i1 @range_overleft_internal(ptr noundef %71, ptr noundef %72, ptr noundef %74)
  %76 = zext i1 %75 to i8
  store i8 %76, ptr %7, align 1
  br label %152

77:                                               ; preds = %45
  %78 = load ptr, ptr %6, align 8
  %79 = load ptr, ptr %5, align 8
  %80 = load i64, ptr %9, align 8
  %81 = call ptr @DatumGetRangeTypeP(i64 noundef %80)
  %82 = call zeroext i1 @range_overlaps_internal(ptr noundef %78, ptr noundef %79, ptr noundef %81)
  %83 = zext i1 %82 to i8
  store i8 %83, ptr %7, align 1
  br label %152

84:                                               ; preds = %45
  %85 = load ptr, ptr %6, align 8
  %86 = load ptr, ptr %5, align 8
  %87 = load i64, ptr %9, align 8
  %88 = call ptr @DatumGetRangeTypeP(i64 noundef %87)
  %89 = call zeroext i1 @range_overright_internal(ptr noundef %85, ptr noundef %86, ptr noundef %88)
  %90 = zext i1 %89 to i8
  store i8 %90, ptr %7, align 1
  br label %152

91:                                               ; preds = %45
  %92 = load ptr, ptr %6, align 8
  %93 = load ptr, ptr %5, align 8
  %94 = load i64, ptr %9, align 8
  %95 = call ptr @DatumGetRangeTypeP(i64 noundef %94)
  %96 = call zeroext i1 @range_after_internal(ptr noundef %92, ptr noundef %93, ptr noundef %95)
  %97 = zext i1 %96 to i8
  store i8 %97, ptr %7, align 1
  br label %152

98:                                               ; preds = %45
  %99 = load ptr, ptr %6, align 8
  %100 = load ptr, ptr %5, align 8
  %101 = load i64, ptr %9, align 8
  %102 = call ptr @DatumGetRangeTypeP(i64 noundef %101)
  %103 = call zeroext i1 @range_adjacent_internal(ptr noundef %99, ptr noundef %100, ptr noundef %102)
  %104 = zext i1 %103 to i8
  store i8 %104, ptr %7, align 1
  br label %152

105:                                              ; preds = %45
  %106 = load ptr, ptr %6, align 8
  %107 = load ptr, ptr %5, align 8
  %108 = load i64, ptr %9, align 8
  %109 = call ptr @DatumGetRangeTypeP(i64 noundef %108)
  %110 = call zeroext i1 @range_contains_internal(ptr noundef %106, ptr noundef %107, ptr noundef %109)
  %111 = zext i1 %110 to i8
  store i8 %111, ptr %7, align 1
  br label %152

112:                                              ; preds = %45
  %113 = load ptr, ptr %6, align 8
  %114 = load ptr, ptr %5, align 8
  %115 = load i64, ptr %9, align 8
  %116 = call ptr @DatumGetRangeTypeP(i64 noundef %115)
  %117 = call zeroext i1 @range_contained_by_internal(ptr noundef %113, ptr noundef %114, ptr noundef %116)
  %118 = zext i1 %117 to i8
  store i8 %118, ptr %7, align 1
  br label %152

119:                                              ; preds = %45
  %120 = load ptr, ptr %6, align 8
  %121 = load ptr, ptr %5, align 8
  %122 = load i64, ptr %9, align 8
  %123 = call zeroext i1 @range_contains_elem_internal(ptr noundef %120, ptr noundef %121, i64 noundef %122)
  %124 = zext i1 %123 to i8
  store i8 %124, ptr %7, align 1
  br label %152

125:                                              ; preds = %45
  %126 = load ptr, ptr %6, align 8
  %127 = load ptr, ptr %5, align 8
  %128 = load i64, ptr %9, align 8
  %129 = call ptr @DatumGetRangeTypeP(i64 noundef %128)
  %130 = call zeroext i1 @range_eq_internal(ptr noundef %126, ptr noundef %127, ptr noundef %129)
  %131 = zext i1 %130 to i8
  store i8 %131, ptr %7, align 1
  br label %152

132:                                              ; preds = %45
  br label %133

133:                                              ; preds = %132
  br i1 true, label %134, label %136

134:                                              ; preds = %133
  %135 = call zeroext i1 @errstart_cold(i32 noundef 21, ptr noundef null) #6
  br i1 %135, label %138, label %149

136:                                              ; preds = %133
  %137 = call zeroext i1 @errstart(i32 noundef 21, ptr noundef null)
  br i1 %137, label %138, label %149

138:                                              ; preds = %136, %134
  %139 = load ptr, ptr %3, align 8
  %140 = getelementptr inbounds nuw %struct.spgLeafConsistentIn, ptr %139, i32 0, i32 0
  %141 = load ptr, ptr %140, align 8
  %142 = load i32, ptr %8, align 4
  %143 = sext i32 %142 to i64
  %144 = getelementptr inbounds %struct.ScanKeyData, ptr %141, i64 %143
  %145 = getelementptr inbounds nuw %struct.ScanKeyData, ptr %144, i32 0, i32 2
  %146 = load i16, ptr %145, align 2
  %147 = zext i16 %146 to i32
  %148 = call i32 (ptr, ...) @errmsg_internal(ptr noundef @.str, i32 noundef %147)
  call void @errfinish(ptr noundef @.str.1, i32 noundef 985, ptr noundef @__func__.spg_range_quad_leaf_consistent)
  br label %149

149:                                              ; preds = %138, %136, %134
  unreachable

150:                                              ; No predecessors!
  br label %151

151:                                              ; preds = %150
  br label %152

152:                                              ; preds = %151, %125, %119, %112, %105, %98, %91, %84, %77, %70, %63
  %153 = load i8, ptr %7, align 1, !range !4, !noundef !5
  %154 = trunc i8 %153 to i1
  br i1 %154, label %156, label %155

155:                                              ; preds = %152
  store i32 2, ptr %10, align 4
  br label %157

156:                                              ; preds = %152
  store i32 0, ptr %10, align 4
  br label %157

157:                                              ; preds = %156, %155
  call void @llvm.lifetime.end.p0(i64 8, ptr %9) #5
  %158 = load i32, ptr %10, align 4
  switch i32 %158, label %167 [
    i32 0, label %159
    i32 2, label %163
  ]

159:                                              ; preds = %157
  br label %160

160:                                              ; preds = %159
  %161 = load i32, ptr %8, align 4
  %162 = add i32 %161, 1
  store i32 %162, ptr %8, align 4
  br label %39, !llvm.loop !14

163:                                              ; preds = %157, %39
  %164 = load i8, ptr %7, align 1, !range !4, !noundef !5
  %165 = trunc i8 %164 to i1
  %166 = call i64 @BoolGetDatum(i1 noundef zeroext %165)
  store i32 1, ptr %10, align 4
  call void @llvm.lifetime.end.p0(i64 4, ptr %8) #5
  call void @llvm.lifetime.end.p0(i64 1, ptr %7) #5
  call void @llvm.lifetime.end.p0(i64 8, ptr %6) #5
  call void @llvm.lifetime.end.p0(i64 8, ptr %5) #5
  call void @llvm.lifetime.end.p0(i64 8, ptr %4) #5
  call void @llvm.lifetime.end.p0(i64 8, ptr %3) #5
  ret i64 %166

167:                                              ; preds = %157
  unreachable
}